; Function Attrs: mustprogress uwtable
define void @_ZN16veloxtpFlexLexer14switch_streamsERSiRSo(ptr noundef nonnull align 8 dereferenceable(732) %this, ptr noundef nonnull align 8 dereferenceable(16) %new_in, ptr noundef nonnull align 8 dereferenceable(8) %new_out) unnamed_addr #4 align 2 {
entry:
  %yy_buffer_stack = getelementptr inbounds i8, ptr %this, i64 648
  %0 = load ptr, ptr %yy_buffer_stack, align 8
  %tobool.not = icmp eq ptr %0, null
  br i1 %tobool.not, label %cond.end, label %cond.true

cond.true:                                        ; preds = %entry
  %yy_buffer_stack_top = getelementptr inbounds i8, ptr %this, i64 632
  %1 = load i64, ptr %yy_buffer_stack_top, align 8
  %arrayidx = getelementptr inbounds ptr, ptr %0, i64 %1
  %2 = load ptr, ptr %arrayidx, align 8
  br label %cond.end

cond.end:                                         ; preds = %entry, %cond.true
  %cond = phi ptr [ %2, %cond.true ], [ null, %entry ]
  %vtable = load ptr, ptr %this, align 8
  %vfn = getelementptr inbounds i8, ptr %vtable, i64 40
  %3 = load ptr, ptr %vfn, align 8
  tail call void %3(ptr noundef nonnull align 8 dereferenceable(732) %this, ptr noundef %cond)
  %vtable3 = load ptr, ptr %this, align 8
  %vfn4 = getelementptr inbounds i8, ptr %vtable3, i64 32
  %4 = load ptr, ptr %vfn4, align 8
  %call = tail call noundef ptr %4(ptr noundef nonnull align 8 dereferenceable(732) %this, ptr noundef nonnull align 8 dereferenceable(16) %new_in, i32 noundef 16384)
  %vtable5 = load ptr, ptr %this, align 8
  %vfn6 = getelementptr inbounds i8, ptr %vtable5, i64 16
  %5 = load ptr, ptr %vfn6, align 8
  tail call void %5(ptr noundef nonnull align 8 dereferenceable(732) %this, ptr noundef %call)
  %yyout = getelementptr inbounds i8, ptr %this, i64 328
  %vtable7 = load ptr, ptr %yyout, align 8
  %vbase.offset.ptr = getelementptr i8, ptr %vtable7, i64 -24
  %vbase.offset = load i64, ptr %vbase.offset.ptr, align 8
  %add.ptr = getelementptr inbounds i8, ptr %yyout, i64 %vbase.offset
  %vtable8 = load ptr, ptr %new_out, align 8
  %vbase.offset.ptr9 = getelementptr i8, ptr %vtable8, i64 -24
  %vbase.offset10 = load i64, ptr %vbase.offset.ptr9, align 8
  %add.ptr11 = getelementptr inbounds i8, ptr %new_out, i64 %vbase.offset10
  %call12 = tail call noundef ptr @_ZNKSt9basic_iosIcSt11char_traitsIcEE5rdbufEv(ptr noundef nonnull align 8 dereferenceable(264) %add.ptr11)
  %call13 = tail call noundef ptr @_ZNSt9basic_iosIcSt11char_traitsIcEE5rdbufEPSt15basic_streambufIcS1_E(ptr noundef nonnull align 8 dereferenceable(264) %add.ptr, ptr noundef %call12)
  ret void
}